; Function Attrs: mustprogress uwtable
define void @_ZN32pxrInternal_v0_24__pxrReserved__20UsdSkelSkinningQuery29_InitializeBlendShapeBindingsERKNS_12UsdAttributeERKNS_15UsdRelationshipE(ptr nocapture noundef nonnull align 8 dereferenceable(400) %0, ptr noundef nonnull align 8 dereferenceable(32) %1, ptr noundef nonnull align 8 dereferenceable(32) %2) local_unnamed_addr #0 align 2 {
  %4 = load i32, ptr %1, align 8
  switch i32 %4, label %_ZNK32pxrInternal_v0_24__pxrReserved__9UsdObjectcvbEv.exit.thread [
    i32 4, label %5
    i32 3, label %5
    i32 1, label %5
  ]

5:                                                ; preds = %3, %3, %3
  %6 = getelementptr inbounds nuw i8, ptr %1, i64 8
  %7 = load ptr, ptr %6, align 8
  %.not.i.i.i = icmp eq ptr %7, null
  br i1 %.not.i.i.i, label %_ZNK32pxrInternal_v0_24__pxrReserved__9UsdObjectcvbEv.exit.thread, label %_ZNK32pxrInternal_v0_24__pxrReserved__18Usd_PrimDataHandlecvbEv.exit.i.i

_ZNK32pxrInternal_v0_24__pxrReserved__18Usd_PrimDataHandlecvbEv.exit.i.i: ; preds = %5
  %8 = getelementptr inbounds nuw i8, ptr %7, i64 56
  %9 = load i64, ptr %8, align 8
  %10 = and i64 %9, 2048
  %.not3.i.i.i = icmp eq i64 %10, 0
  br i1 %.not3.i.i.i, label %11, label %_ZNK32pxrInternal_v0_24__pxrReserved__9UsdObjectcvbEv.exit.thread

11:                                               ; preds = %_ZNK32pxrInternal_v0_24__pxrReserved__18Usd_PrimDataHandlecvbEv.exit.i.i
  %12 = icmp eq i32 %4, 1
  br i1 %12, label %_ZNK32pxrInternal_v0_24__pxrReserved__9UsdObjectcvbEv.exit.thread11, label %13

13:                                               ; preds = %11
  %14 = tail call noundef i32 @_ZNK32pxrInternal_v0_24__pxrReserved__9UsdObject20_GetDefiningSpecTypeEv(ptr noundef nonnull align 8 dereferenceable(32) %1)
  %15 = load i32, ptr %1, align 8
  %16 = icmp eq i32 %15, 3
  %17 = icmp eq i32 %14, 1
  %or.cond.i.i = and i1 %17, %16
  br i1 %or.cond.i.i, label %_ZNK32pxrInternal_v0_24__pxrReserved__9UsdObjectcvbEv.exit.thread11, label %_ZNK32pxrInternal_v0_24__pxrReserved__9UsdObjectcvbEv.exit

_ZNK32pxrInternal_v0_24__pxrReserved__9UsdObjectcvbEv.exit: ; preds = %13
  %18 = icmp eq i32 %15, 4
  %19 = icmp eq i32 %14, 8
  %20 = and i1 %19, %18
  br i1 %20, label %_ZNK32pxrInternal_v0_24__pxrReserved__9UsdObjectcvbEv.exit.thread11, label %_ZNK32pxrInternal_v0_24__pxrReserved__9UsdObjectcvbEv.exit.thread

_ZNK32pxrInternal_v0_24__pxrReserved__9UsdObjectcvbEv.exit.thread11: ; preds = %13, %11, %_ZNK32pxrInternal_v0_24__pxrReserved__9UsdObjectcvbEv.exit
  %21 = load i32, ptr %2, align 8
  switch i32 %21, label %_ZNK32pxrInternal_v0_24__pxrReserved__9UsdObjectcvbEv.exit.thread [
    i32 4, label %22
    i32 3, label %22
    i32 1, label %22
  ]

22:                                               ; preds = %_ZNK32pxrInternal_v0_24__pxrReserved__9UsdObjectcvbEv.exit.thread11, %_ZNK32pxrInternal_v0_24__pxrReserved__9UsdObjectcvbEv.exit.thread11, %_ZNK32pxrInternal_v0_24__pxrReserved__9UsdObjectcvbEv.exit.thread11
  %23 = getelementptr inbounds nuw i8, ptr %2, i64 8
  %24 = load ptr, ptr %23, align 8
  %.not.i.i.i3 = icmp eq ptr %24, null
  br i1 %.not.i.i.i3, label %_ZNK32pxrInternal_v0_24__pxrReserved__9UsdObjectcvbEv.exit.thread, label %_ZNK32pxrInternal_v0_24__pxrReserved__18Usd_PrimDataHandlecvbEv.exit.i.i4

_ZNK32pxrInternal_v0_24__pxrReserved__18Usd_PrimDataHandlecvbEv.exit.i.i4: ; preds = %22
  %25 = getelementptr inbounds nuw i8, ptr %24, i64 56
  %26 = load i64, ptr %25, align 8
  %27 = and i64 %26, 2048
  %.not3.i.i.i5 = icmp eq i64 %27, 0
  br i1 %.not3.i.i.i5, label %28, label %_ZNK32pxrInternal_v0_24__pxrReserved__9UsdObjectcvbEv.exit.thread

28:                                               ; preds = %_ZNK32pxrInternal_v0_24__pxrReserved__18Usd_PrimDataHandlecvbEv.exit.i.i4
  %29 = icmp eq i32 %21, 1
  br i1 %29, label %_ZNK32pxrInternal_v0_24__pxrReserved__9UsdObjectcvbEv.exit8.thread15, label %30

30:                                               ; preds = %28
  %31 = tail call noundef i32 @_ZNK32pxrInternal_v0_24__pxrReserved__9UsdObject20_GetDefiningSpecTypeEv(ptr noundef nonnull align 8 dereferenceable(32) %2)
  %32 = load i32, ptr %2, align 8
  %33 = icmp eq i32 %32, 3
  %34 = icmp eq i32 %31, 1
  %or.cond.i.i7 = and i1 %34, %33
  br i1 %or.cond.i.i7, label %_ZNK32pxrInternal_v0_24__pxrReserved__9UsdObjectcvbEv.exit8.thread15, label %_ZNK32pxrInternal_v0_24__pxrReserved__9UsdObjectcvbEv.exit8

_ZNK32pxrInternal_v0_24__pxrReserved__9UsdObjectcvbEv.exit8: ; preds = %30
  %35 = icmp eq i32 %32, 4
  %36 = icmp eq i32 %31, 8
  %37 = and i1 %36, %35
  %38 = getelementptr inbounds nuw i8, ptr %0, i64 288
  %39 = load ptr, ptr %38, align 8
  %40 = icmp ne ptr %39, null
  %or.cond = select i1 %37, i1 %40, i1 false
  br i1 %or.cond, label %41, label %_ZNK32pxrInternal_v0_24__pxrReserved__9UsdObjectcvbEv.exit.thread

_ZNK32pxrInternal_v0_24__pxrReserved__9UsdObjectcvbEv.exit8.thread15: ; preds = %30, %28
  %.old = getelementptr inbounds nuw i8, ptr %0, i64 288
  %.old17 = load ptr, ptr %.old, align 8
  %.old18.not = icmp eq ptr %.old17, null
  br i1 %.old18.not, label %_ZNK32pxrInternal_v0_24__pxrReserved__9UsdObjectcvbEv.exit.thread, label %41

41:                                               ; preds = %_ZNK32pxrInternal_v0_24__pxrReserved__9UsdObjectcvbEv.exit8, %_ZNK32pxrInternal_v0_24__pxrReserved__9UsdObjectcvbEv.exit8.thread15
  %42 = getelementptr inbounds nuw i8, ptr %0, i64 36
  %43 = load i32, ptr %42, align 4
  %44 = or i32 %43, 2
  store i32 %44, ptr %42, align 4
  br label %_ZNK32pxrInternal_v0_24__pxrReserved__9UsdObjectcvbEv.exit.thread

_ZNK32pxrInternal_v0_24__pxrReserved__9UsdObjectcvbEv.exit.thread: ; preds = %22, %_ZNK32pxrInternal_v0_24__pxrReserved__9UsdObjectcvbEv.exit.thread11, %_ZNK32pxrInternal_v0_24__pxrReserved__18Usd_PrimDataHandlecvbEv.exit.i.i4, %5, %3, %_ZNK32pxrInternal_v0_24__pxrReserved__18Usd_PrimDataHandlecvbEv.exit.i.i, %41, %_ZNK32pxrInternal_v0_24__pxrReserved__9UsdObjectcvbEv.exit8.thread15, %_ZNK32pxrInternal_v0_24__pxrReserved__9UsdObjectcvbEv.exit8, %_ZNK32pxrInternal_v0_24__pxrReserved__9UsdObjectcvbEv.exit
  ret void
}